target datalayout = "e-m:e-p270:32:32-p271:32:32-p272:64:64-i64:64-i128:128-f80:128-n8:16:32:64-S128"
target triple = "x86_64-pc-linux-gnu"

%struct.s_x3 = type { i32, i32, ptr, ptr }
%struct.s_x3node = type { ptr, ptr, ptr, ptr }

@x3a = internal global ptr null, align 8

; Function Attrs: nounwind null_pointer_is_valid sspstrong uwtable
define hidden ptr @State_arrayof() #2 {
  %1 = alloca ptr, align 8
  %2 = alloca ptr, align 8
  %3 = alloca i32, align 4
  %4 = alloca i32, align 4
  %5 = alloca i32, align 4
  call void @llvm.lifetime.start.p0(i64 8, ptr %2) #18
  call void @llvm.lifetime.start.p0(i64 4, ptr %3) #18
  call void @llvm.lifetime.start.p0(i64 4, ptr %4) #18
  %6 = load ptr, ptr @x3a, align 8
  %7 = icmp eq ptr %6, null
  br i1 %7, label %8, label %9

8:                                                ; preds = %0
  store ptr null, ptr %1, align 8
  store i32 1, ptr %5, align 4
  br label %42

9:                                                ; preds = %0
  %10 = load ptr, ptr @x3a, align 8
  %11 = getelementptr inbounds nuw %struct.s_x3, ptr %10, i32 0, i32 1
  %12 = load i32, ptr %11, align 4
  store i32 %12, ptr %4, align 4
  %13 = load i32, ptr %4, align 4
  %14 = sext i32 %13 to i64
  %15 = call noalias ptr @calloc(i64 noundef %14, i64 noundef 8) #19
  store ptr %15, ptr %2, align 8
  %16 = load ptr, ptr %2, align 8
  %17 = icmp ne ptr %16, null
  br i1 %17, label %18, label %40

18:                                               ; preds = %9
  store i32 0, ptr %3, align 4
  br label %19

19:                                               ; preds = %36, %18
  %20 = load i32, ptr %3, align 4
  %21 = load i32, ptr %4, align 4
  %22 = icmp slt i32 %20, %21
  br i1 %22, label %23, label %39

23:                                               ; preds = %19
  %24 = load ptr, ptr @x3a, align 8
  %25 = getelementptr inbounds nuw %struct.s_x3, ptr %24, i32 0, i32 2
  %26 = load ptr, ptr %25, align 8
  %27 = load i32, ptr %3, align 4
  %28 = sext i32 %27 to i64
  %29 = getelementptr %struct.s_x3node, ptr %26, i64 %28
  %30 = getelementptr inbounds nuw %struct.s_x3node, ptr %29, i32 0, i32 0
  %31 = load ptr, ptr %30, align 8
  %32 = load ptr, ptr %2, align 8
  %33 = load i32, ptr %3, align 4
  %34 = sext i32 %33 to i64
  %35 = getelementptr ptr, ptr %32, i64 %34
  store ptr %31, ptr %35, align 8
  br label %36

36:                                               ; preds = %23
  %37 = load i32, ptr %3, align 4
  %38 = add i32 %37, 1
  store i32 %38, ptr %3, align 4
  br label %19, !llvm.loop !114

39:                                               ; preds = %19
  br label %40

40:                                               ; preds = %39, %9
  %41 = load ptr, ptr %2, align 8
  store ptr %41, ptr %1, align 8
  store i32 1, ptr %5, align 4
  br label %42

42:                                               ; preds = %40, %8
  call void @llvm.lifetime.end.p0(i64 4, ptr %4) #18
  call void @llvm.lifetime.end.p0(i64 4, ptr %3) #18
  call void @llvm.lifetime.end.p0(i64 8, ptr %2) #18
  %43 = load ptr, ptr %1, align 8
  ret ptr %43
}