; Function Attrs: nofree nounwind null_pointer_is_valid sspstrong memory(readwrite, argmem: read) uwtable
define hidden noalias noundef ptr @State_arrayof() local_unnamed_addr #24 {
  %1 = load ptr, ptr @x3a, align 8
  %2 = icmp eq ptr %1, null
  br i1 %2, label %.loopexit, label %3

3:                                                ; preds = %0
  %4 = getelementptr inbounds nuw i8, ptr %1, i64 4
  %5 = load i32, ptr %4, align 4
  %6 = sext i32 %5 to i64
  %7 = tail call noalias ptr @calloc(i64 noundef %6, i64 noundef 8) #40
  %.not = icmp eq ptr %7, null
  br i1 %.not, label %.loopexit, label %.preheader

.preheader:                                       ; preds = %3
  %8 = icmp sgt i32 %5, 0
  br i1 %8, label %.lr.ph, label %.loopexit

.lr.ph:                                           ; preds = %.preheader
  %9 = getelementptr inbounds nuw i8, ptr %1, i64 8
  %10 = load ptr, ptr %9, align 8
  %wide.trip.count = zext nneg i32 %5 to i64
  br label %11

11:                                               ; preds = %.lr.ph, %11
  %indvars.iv = phi i64 [ 0, %.lr.ph ], [ %indvars.iv.next, %11 ]
  %12 = getelementptr %struct.s_x3node, ptr %10, i64 %indvars.iv
  %13 = load ptr, ptr %12, align 8
  %14 = getelementptr ptr, ptr %7, i64 %indvars.iv
  store ptr %13, ptr %14, align 8
  %indvars.iv.next = add nuw nsw i64 %indvars.iv, 1
  %exitcond.not = icmp eq i64 %indvars.iv.next, %wide.trip.count
  br i1 %exitcond.not, label %.loopexit, label %11, !llvm.loop !103

.loopexit:                                        ; preds = %11, %.preheader, %3, %0
  %.0 = phi ptr [ null, %0 ], [ null, %3 ], [ %7, %.preheader ], [ %7, %11 ]
  ret ptr %.0
}